target datalayout = "e-m:e-p270:32:32-p271:32:32-p272:64:64-i64:64-i128:128-f80:128-n8:16:32:64-S128"
target triple = "x86_64-pc-linux-gnu"

%class.ProcessDerivedOop = type { %class.DerivedOopClosure, ptr }
%class.DerivedOopClosure = type { ptr }
%class.AddDerivedOop = type { %class.DerivedOopClosure }
%class.IgnoreDerivedOop = type { %class.DerivedOopClosure, ptr }
%class.OopMapDo = type { ptr, ptr }

@g_assert_poison = external global ptr, align 8
@.str.8 = private unnamed_addr constant [38 x i8] c"src/hotspot/share/compiler/oopMap.cpp\00", align 1
@.str.9 = private unnamed_addr constant [24 x i8] c"guarantee(false) failed\00", align 1
@.str.10 = private unnamed_addr constant [12 x i8] c"unreachable\00", align 1
@_ZTV17ProcessDerivedOop = linkonce_odr hidden unnamed_addr constant { [3 x ptr] } { [3 x ptr] [ptr null, ptr null, ptr @_ZN17ProcessDerivedOop14do_derived_oopEP12derived_baseP15derived_pointer] }, comdat, align 8
@_ZTV17DerivedOopClosure = linkonce_odr hidden unnamed_addr constant { [3 x ptr] } { [3 x ptr] [ptr null, ptr null, ptr @__cxa_pure_virtual] }, comdat, align 8
@_ZTV13AddDerivedOop = linkonce_odr hidden unnamed_addr constant { [3 x ptr] } { [3 x ptr] [ptr null, ptr null, ptr @_ZN13AddDerivedOop14do_derived_oopEP12derived_baseP15derived_pointer] }, comdat, align 8
@_ZTV16IgnoreDerivedOop = linkonce_odr hidden unnamed_addr constant { [3 x ptr] } { [3 x ptr] [ptr null, ptr null, ptr @_ZN16IgnoreDerivedOop14do_derived_oopEP12derived_baseP15derived_pointer] }, comdat, align 8

; Function Attrs: mustprogress nounwind uwtable
define linkonce_odr hidden void @_ZN17DerivedOopClosureC2Ev(ptr noundef nonnull align 8 dereferenceable(8) %0) unnamed_addr #1 comdat align 2 {
  %2 = alloca ptr, align 8
  store ptr %0, ptr %2, align 8
  %3 = load ptr, ptr %2, align 8
  store ptr getelementptr inbounds inrange(-16, 8) ({ [3 x ptr] }, ptr @_ZTV17DerivedOopClosure, i32 0, i32 0, i32 2), ptr %3, align 8
  ret void
}

; Function Attrs: mustprogress nounwind uwtable
define linkonce_odr hidden void @_ZN8OopMapDoI10OopClosure17DerivedOopClosure13SkipNullValueE7oops_doI11RegisterMapEEvPK5framePKT_PK15ImmutableOopMap(ptr noundef nonnull align 8 dereferenceable(16) %0, ptr noundef %1, ptr noundef %2, ptr noundef %3) #1 comdat align 2 {
  %5 = alloca ptr, align 8
  %6 = alloca ptr, align 8
  %7 = alloca ptr, align 8
  %8 = alloca ptr, align 8
  store ptr %0, ptr %5, align 8
  store ptr %1, ptr %6, align 8
  store ptr %2, ptr %7, align 8
  store ptr %3, ptr %8, align 8
  %9 = load ptr, ptr %5, align 8
  %10 = load ptr, ptr %6, align 8
  %11 = load ptr, ptr %7, align 8
  %12 = load ptr, ptr %8, align 8
  call void @_ZN8OopMapDoI10OopClosure17DerivedOopClosure13SkipNullValueE15iterate_oops_doI11RegisterMapEEvPK5framePKT_PK15ImmutableOopMap(ptr noundef nonnull align 8 dereferenceable(16) %9, ptr noundef %10, ptr noundef %11, ptr noundef %12)
  ret void
}

; Function Attrs: mustprogress nounwind uwtable
define linkonce_odr hidden void @_ZN8OopMapDoI10OopClosure17DerivedOopClosure13SkipNullValueEC2EPS0_PS1_(ptr noundef nonnull align 8 dereferenceable(16) %0, ptr noundef %1, ptr noundef %2) unnamed_addr #1 comdat align 2 {
  %4 = alloca ptr, align 8
  %5 = alloca ptr, align 8
  %6 = alloca ptr, align 8
  store ptr %0, ptr %4, align 8
  store ptr %1, ptr %5, align 8
  store ptr %2, ptr %6, align 8
  %7 = load ptr, ptr %4, align 8
  %8 = getelementptr inbounds %class.OopMapDo, ptr %7, i32 0, i32 0
  %9 = load ptr, ptr %5, align 8
  store ptr %9, ptr %8, align 8
  %10 = getelementptr inbounds %class.OopMapDo, ptr %7, i32 0, i32 1
  %11 = load ptr, ptr %6, align 8
  store ptr %11, ptr %10, align 8
  ret void
}

; Function Attrs: mustprogress nounwind uwtable
define linkonce_odr hidden void @_ZN16IgnoreDerivedOopC2Ev(ptr noundef nonnull align 8 dereferenceable(16) %0) unnamed_addr #1 comdat align 2 {
  %2 = alloca ptr, align 8
  store ptr %0, ptr %2, align 8
  %3 = load ptr, ptr %2, align 8
  call void @_ZN17DerivedOopClosureC2Ev(ptr noundef nonnull align 8 dereferenceable(8) %3) #7
  store ptr getelementptr inbounds inrange(-16, 8) ({ [3 x ptr] }, ptr @_ZTV16IgnoreDerivedOop, i32 0, i32 0, i32 2), ptr %3, align 8
  ret void
}

; Function Attrs: mustprogress nounwind uwtable
define linkonce_odr hidden void @_ZN13AddDerivedOopC2Ev(ptr noundef nonnull align 8 dereferenceable(8) %0) unnamed_addr #1 comdat align 2 {
  %2 = alloca ptr, align 8
  store ptr %0, ptr %2, align 8
  %3 = load ptr, ptr %2, align 8
  call void @_ZN17DerivedOopClosureC2Ev(ptr noundef nonnull align 8 dereferenceable(8) %3) #7
  store ptr getelementptr inbounds inrange(-16, 8) ({ [3 x ptr] }, ptr @_ZTV13AddDerivedOop, i32 0, i32 0, i32 2), ptr %3, align 8
  ret void
}

; Function Attrs: mustprogress nounwind uwtable
define linkonce_odr hidden void @_ZN17ProcessDerivedOopC2EP10OopClosure(ptr noundef nonnull align 8 dereferenceable(16) %0, ptr noundef %1) unnamed_addr #1 comdat align 2 {
  %3 = alloca ptr, align 8
  %4 = alloca ptr, align 8
  store ptr %0, ptr %3, align 8
  store ptr %1, ptr %4, align 8
  %5 = load ptr, ptr %3, align 8
  call void @_ZN17DerivedOopClosureC2Ev(ptr noundef nonnull align 8 dereferenceable(8) %5) #7
  store ptr getelementptr inbounds inrange(-16, 8) ({ [3 x ptr] }, ptr @_ZTV17ProcessDerivedOop, i32 0, i32 0, i32 2), ptr %5, align 8
  %6 = getelementptr inbounds %class.ProcessDerivedOop, ptr %5, i32 0, i32 1
  %7 = load ptr, ptr %4, align 8
  store ptr %7, ptr %6, align 8
  ret void
}

; Function Attrs: mustprogress nounwind uwtable
define hidden void @_ZNK15ImmutableOopMap7oops_doEPK5framePK11RegisterMapP10OopClosure27DerivedPointerIterationMode(ptr noundef nonnull align 4 dereferenceable(9) %0, ptr noundef %1, ptr noundef %2, ptr noundef %3, i32 noundef %4) #1 align 2 {
  %6 = alloca ptr, align 8
  %7 = alloca ptr, align 8
  %8 = alloca ptr, align 8
  %9 = alloca ptr, align 8
  %10 = alloca i32, align 4
  %11 = alloca %class.ProcessDerivedOop, align 8
  %12 = alloca %class.AddDerivedOop, align 8
  %13 = alloca %class.IgnoreDerivedOop, align 8
  %14 = alloca ptr, align 8
  %15 = alloca %class.OopMapDo, align 8
  store ptr %0, ptr %6, align 8
  store ptr %1, ptr %7, align 8
  store ptr %2, ptr %8, align 8
  store ptr %3, ptr %9, align 8
  store i32 %4, ptr %10, align 4
  %16 = load ptr, ptr %6, align 8
  %17 = load ptr, ptr %9, align 8
  call void @_ZN17ProcessDerivedOopC2EP10OopClosure(ptr noundef nonnull align 8 dereferenceable(16) %11, ptr noundef %17)
  call void @_ZN13AddDerivedOopC2Ev(ptr noundef nonnull align 8 dereferenceable(8) %12) #7
  call void @_ZN16IgnoreDerivedOopC2Ev(ptr noundef nonnull align 8 dereferenceable(16) %13) #7
  %18 = load i32, ptr %10, align 4
  switch i32 %18, label %22 [
    i32 1, label %19
    i32 0, label %20
    i32 2, label %21
  ]

19:                                               ; preds = %5
  store ptr %11, ptr %14, align 8
  br label %26

20:                                               ; preds = %5
  store ptr %12, ptr %14, align 8
  br label %26

21:                                               ; preds = %5
  store ptr %13, ptr %14, align 8
  br label %26

22:                                               ; preds = %5
  br label %23

23:                                               ; preds = %22
  %24 = load ptr, ptr @g_assert_poison, align 8
  store i8 88, ptr %24, align 1
  call void (ptr, i32, ptr, ptr, ...) @_Z15report_vm_errorPKciS0_S0_z(ptr noundef @.str.8, i32 noundef 468, ptr noundef @.str.9, ptr noundef @.str.10) #8
  unreachable

25:                                               ; No predecessors!
  br label %26

26:                                               ; preds = %25, %21, %20, %19
  %27 = load ptr, ptr %9, align 8
  %28 = load ptr, ptr %14, align 8
  call void @_ZN8OopMapDoI10OopClosure17DerivedOopClosure13SkipNullValueEC2EPS0_PS1_(ptr noundef nonnull align 8 dereferenceable(16) %15, ptr noundef %27, ptr noundef %28)
  %29 = load ptr, ptr %7, align 8
  %30 = load ptr, ptr %8, align 8
  call void @_ZN8OopMapDoI10OopClosure17DerivedOopClosure13SkipNullValueE7oops_doI11RegisterMapEEvPK5framePKT_PK15ImmutableOopMap(ptr noundef nonnull align 8 dereferenceable(16) %15, ptr noundef %29, ptr noundef %30, ptr noundef %16)
  ret void
}