; Function Attrs: mustprogress nounwind uwtable
define hidden void @_ZNK15ImmutableOopMap7oops_doEPK5framePK11RegisterMapP10OopClosure27DerivedPointerIterationMode(ptr noundef nonnull align 4 dereferenceable(9) %0, ptr noundef %1, ptr noundef %2, ptr noundef %3, i32 noundef %4) local_unnamed_addr #2 align 2 {
  %6 = alloca %class.ProcessDerivedOop, align 8
  %7 = alloca %class.AddDerivedOop, align 8
  %8 = alloca %class.IgnoreDerivedOop, align 8
  %9 = alloca %class.OopMapDo, align 8
  store ptr getelementptr inbounds inrange(-16, 8) (i8, ptr @_ZTV17ProcessDerivedOop, i64 16), ptr %6, align 8
  %10 = getelementptr inbounds i8, ptr %6, i64 8
  store ptr %3, ptr %10, align 8
  store ptr getelementptr inbounds inrange(-16, 8) (i8, ptr @_ZTV13AddDerivedOop, i64 16), ptr %7, align 8
  store ptr getelementptr inbounds inrange(-16, 8) (i8, ptr @_ZTV16IgnoreDerivedOop, i64 16), ptr %8, align 8
  switch i32 %4, label %13 [
    i32 1, label %15
    i32 0, label %11
    i32 2, label %12
  ]

11:                                               ; preds = %5
  br label %15

12:                                               ; preds = %5
  br label %15

13:                                               ; preds = %5
  %14 = load ptr, ptr @g_assert_poison, align 8
  store i8 88, ptr %14, align 1
  tail call void (ptr, i32, ptr, ptr, ...) @_Z15report_vm_errorPKciS0_S0_z(ptr noundef nonnull @.str.8, i32 noundef 468, ptr noundef nonnull @.str.9, ptr noundef nonnull @.str.10) #20
  unreachable

15:                                               ; preds = %5, %12, %11
  %.0 = phi ptr [ %8, %12 ], [ %7, %11 ], [ %6, %5 ]
  store ptr %3, ptr %9, align 8
  %16 = getelementptr inbounds i8, ptr %9, i64 8
  store ptr %.0, ptr %16, align 8
  call void @_ZN8OopMapDoI10OopClosure17DerivedOopClosure13SkipNullValueE15iterate_oops_doI11RegisterMapEEvPK5framePKT_PK15ImmutableOopMap(ptr noundef nonnull align 8 dereferenceable(16) %9, ptr noundef %1, ptr noundef %2, ptr noundef nonnull %0)
  ret void
}